target datalayout = "e-m:e-p270:32:32-p271:32:32-p272:64:64-i64:64-i128:128-f80:128-n8:16:32:64-S128"
target triple = "x86_64-pc-linux-gnu"

%struct.bio_st = type { ptr, ptr, ptr, ptr, ptr, i32, i32, i32, i32, i32, ptr, ptr, ptr, %struct.CRYPTO_REF_COUNT, i64, i64, %struct.crypto_ex_data_st }
%struct.CRYPTO_REF_COUNT = type { i32 }
%struct.crypto_ex_data_st = type { ptr, ptr }
%struct.bio_dgram_pair_st = type { ptr, %struct.ring_buf, i64, i64, i32, ptr, ptr, i8 }
%struct.ring_buf = type { ptr, i64, i64, [2 x i64] }
%struct.bio_msg_st = type { ptr, i64, ptr, ptr, i64 }

@.str.2 = private unnamed_addr constant [39 x i8] c"../openssl/crypto/bio/bss_dgram_pair.c\00", align 1
@__func__.dgram_pair_sendmmsg = private unnamed_addr constant [20 x i8] c"dgram_pair_sendmmsg\00", align 1

; Function Attrs: nounwind uwtable
define internal i32 @dgram_pair_sendmmsg(ptr noundef %0, ptr noundef %1, i64 noundef %2, i64 noundef %3, i64 noundef %4, ptr noundef %5) #0 {
  %7 = alloca i32, align 4
  %8 = alloca ptr, align 8
  %9 = alloca ptr, align 8
  %10 = alloca i64, align 8
  %11 = alloca i64, align 8
  %12 = alloca i64, align 8
  %13 = alloca ptr, align 8
  %14 = alloca i64, align 8
  %15 = alloca i64, align 8
  %16 = alloca ptr, align 8
  %17 = alloca i64, align 8
  %18 = alloca ptr, align 8
  %19 = alloca i32, align 4
  store ptr %0, ptr %8, align 8, !tbaa !12
  store ptr %1, ptr %9, align 8, !tbaa !33
  store i64 %2, ptr %10, align 8, !tbaa !8
  store i64 %3, ptr %11, align 8, !tbaa !8
  store i64 %4, ptr %12, align 8, !tbaa !8
  store ptr %5, ptr %13, align 8, !tbaa !35
  call void @llvm.lifetime.start.p0(i64 8, ptr %14) #8
  call void @llvm.lifetime.start.p0(i64 8, ptr %15) #8
  call void @llvm.lifetime.start.p0(i64 8, ptr %16) #8
  call void @llvm.lifetime.start.p0(i64 8, ptr %17) #8
  call void @llvm.lifetime.start.p0(i64 8, ptr %18) #8
  %20 = load ptr, ptr %8, align 8, !tbaa !12
  %21 = getelementptr inbounds nuw %struct.bio_st, ptr %20, i32 0, i32 10
  %22 = load ptr, ptr %21, align 8, !tbaa !16
  store ptr %22, ptr %18, align 8, !tbaa !23
  %23 = load i64, ptr %11, align 8, !tbaa !8
  %24 = icmp eq i64 %23, 0
  br i1 %24, label %25, label %27

25:                                               ; preds = %6
  %26 = load ptr, ptr %13, align 8, !tbaa !35
  store i64 0, ptr %26, align 8, !tbaa !8
  store i32 1, ptr %7, align 4
  store i32 1, ptr %19, align 4
  br label %89

27:                                               ; preds = %6
  %28 = load ptr, ptr %18, align 8, !tbaa !23
  %29 = getelementptr inbounds nuw %struct.bio_dgram_pair_st, ptr %28, i32 0, i32 6
  %30 = load ptr, ptr %29, align 8, !tbaa !25
  %31 = call i32 @CRYPTO_THREAD_write_lock(ptr noundef %30)
  %32 = icmp eq i32 %31, 0
  br i1 %32, label %33, label %35

33:                                               ; preds = %27
  call void @ERR_new()
  call void @ERR_set_debug(ptr noundef @.str.2, i32 noundef 1318, ptr noundef @__func__.dgram_pair_sendmmsg)
  call void (i32, i32, ptr, ...) @ERR_set_error(i32 noundef 32, i32 noundef 786704, ptr noundef null)
  %34 = load ptr, ptr %13, align 8, !tbaa !35
  store i64 0, ptr %34, align 8, !tbaa !8
  store i32 0, ptr %7, align 4
  store i32 1, ptr %19, align 4
  br label %89

35:                                               ; preds = %27
  store i64 0, ptr %17, align 8, !tbaa !8
  br label %36

36:                                               ; preds = %76, %35
  %37 = load i64, ptr %17, align 8, !tbaa !8
  %38 = load i64, ptr %11, align 8, !tbaa !8
  %39 = icmp ult i64 %37, %38
  br i1 %39, label %40, label %79

40:                                               ; preds = %36
  %41 = load ptr, ptr %9, align 8, !tbaa !33
  %42 = load i64, ptr %17, align 8, !tbaa !8
  %43 = load i64, ptr %10, align 8, !tbaa !8
  %44 = mul i64 %42, %43
  %45 = getelementptr inbounds nuw i8, ptr %41, i64 %44
  store ptr %45, ptr %16, align 8, !tbaa !33
  %46 = load ptr, ptr %8, align 8, !tbaa !12
  %47 = load ptr, ptr %16, align 8, !tbaa !33
  %48 = getelementptr inbounds nuw %struct.bio_msg_st, ptr %47, i32 0, i32 0
  %49 = load ptr, ptr %48, align 8, !tbaa !37
  %50 = load ptr, ptr %16, align 8, !tbaa !33
  %51 = getelementptr inbounds nuw %struct.bio_msg_st, ptr %50, i32 0, i32 1
  %52 = load i64, ptr %51, align 8, !tbaa !39
  %53 = load ptr, ptr %16, align 8, !tbaa !33
  %54 = getelementptr inbounds nuw %struct.bio_msg_st, ptr %53, i32 0, i32 3
  %55 = load ptr, ptr %54, align 8, !tbaa !40
  %56 = load ptr, ptr %16, align 8, !tbaa !33
  %57 = getelementptr inbounds nuw %struct.bio_msg_st, ptr %56, i32 0, i32 2
  %58 = load ptr, ptr %57, align 8, !tbaa !41
  %59 = call i64 @dgram_pair_write_actual(ptr noundef %46, ptr noundef %49, i64 noundef %52, ptr noundef %55, ptr noundef %58, i32 noundef 1)
  store i64 %59, ptr %15, align 8, !tbaa !8
  %60 = load i64, ptr %15, align 8, !tbaa !8
  %61 = icmp slt i64 %60, 0
  br i1 %61, label %62, label %73

62:                                               ; preds = %40
  %63 = load i64, ptr %17, align 8, !tbaa !8
  %64 = load ptr, ptr %13, align 8, !tbaa !35
  store i64 %63, ptr %64, align 8, !tbaa !8
  %65 = load i64, ptr %17, align 8, !tbaa !8
  %66 = icmp ugt i64 %65, 0
  br i1 %66, label %67, label %68

67:                                               ; preds = %62
  store i64 1, ptr %14, align 8, !tbaa !8
  br label %72

68:                                               ; preds = %62
  call void @ERR_new()
  call void @ERR_set_debug(ptr noundef @.str.2, i32 noundef 1332, ptr noundef @__func__.dgram_pair_sendmmsg)
  %69 = load i64, ptr %15, align 8, !tbaa !8
  %70 = sub nsw i64 0, %69
  %71 = trunc i64 %70 to i32
  call void (i32, i32, ptr, ...) @ERR_set_error(i32 noundef 32, i32 noundef %71, ptr noundef null)
  store i64 0, ptr %14, align 8, !tbaa !8
  br label %72

72:                                               ; preds = %68, %67
  br label %82

73:                                               ; preds = %40
  %74 = load ptr, ptr %16, align 8, !tbaa !33
  %75 = getelementptr inbounds nuw %struct.bio_msg_st, ptr %74, i32 0, i32 4
  store i64 0, ptr %75, align 8, !tbaa !42
  br label %76

76:                                               ; preds = %73
  %77 = load i64, ptr %17, align 8, !tbaa !8
  %78 = add i64 %77, 1
  store i64 %78, ptr %17, align 8, !tbaa !8
  br label %36, !llvm.loop !43

79:                                               ; preds = %36
  %80 = load i64, ptr %17, align 8, !tbaa !8
  %81 = load ptr, ptr %13, align 8, !tbaa !35
  store i64 %80, ptr %81, align 8, !tbaa !8
  store i64 1, ptr %14, align 8, !tbaa !8
  br label %82

82:                                               ; preds = %79, %72
  %83 = load ptr, ptr %18, align 8, !tbaa !23
  %84 = getelementptr inbounds nuw %struct.bio_dgram_pair_st, ptr %83, i32 0, i32 6
  %85 = load ptr, ptr %84, align 8, !tbaa !25
  %86 = call i32 @CRYPTO_THREAD_unlock(ptr noundef %85)
  %87 = load i64, ptr %14, align 8, !tbaa !8
  %88 = trunc i64 %87 to i32
  store i32 %88, ptr %7, align 4
  store i32 1, ptr %19, align 4
  br label %89

89:                                               ; preds = %82, %33, %25
  call void @llvm.lifetime.end.p0(i64 8, ptr %18) #8
  call void @llvm.lifetime.end.p0(i64 8, ptr %17) #8
  call void @llvm.lifetime.end.p0(i64 8, ptr %16) #8
  call void @llvm.lifetime.end.p0(i64 8, ptr %15) #8
  call void @llvm.lifetime.end.p0(i64 8, ptr %14) #8
  %90 = load i32, ptr %7, align 4
  ret i32 %90
}