; Function Attrs: nounwind uwtable
define internal range(i32 0, 2) i32 @dgram_pair_sendmmsg(ptr noundef %0, ptr noundef captures(none) %1, i64 noundef %2, i64 noundef %3, i64 %4, ptr noundef writeonly captures(none) %5) #1 {
  %7 = icmp eq i64 %3, 0
  br i1 %7, label %8, label %9

8:                                                ; preds = %6
  store i64 0, ptr %5, align 8, !tbaa !35
  br label %39

9:                                                ; preds = %6
  %10 = getelementptr inbounds nuw i8, ptr %0, i64 64
  %11 = load ptr, ptr %10, align 8, !tbaa !8
  %12 = getelementptr inbounds nuw i8, ptr %11, i64 80
  %13 = load ptr, ptr %12, align 8, !tbaa !18
  %14 = tail call i32 @CRYPTO_THREAD_write_lock(ptr noundef %13) #7
  %15 = icmp eq i32 %14, 0
  br i1 %15, label %16, label %.preheader

16:                                               ; preds = %9
  tail call void @ERR_new() #7
  tail call void @ERR_set_debug(ptr noundef nonnull @.str.2, i32 noundef 1318, ptr noundef nonnull @__func__.dgram_pair_sendmmsg) #7
  tail call void (i32, i32, ptr, ...) @ERR_set_error(i32 noundef 32, i32 noundef 786704, ptr noundef null) #7
  store i64 0, ptr %5, align 8, !tbaa !35
  br label %39

.preheader:                                       ; preds = %9, %32
  %.02631 = phi i64 [ %34, %32 ], [ 0, %9 ]
  %17 = mul i64 %.02631, %2
  %18 = getelementptr inbounds nuw i8, ptr %1, i64 %17
  %19 = load ptr, ptr %18, align 8, !tbaa !36
  %20 = getelementptr inbounds nuw i8, ptr %18, i64 8
  %21 = load i64, ptr %20, align 8, !tbaa !38
  %22 = getelementptr inbounds nuw i8, ptr %18, i64 24
  %23 = load ptr, ptr %22, align 8, !tbaa !39
  %24 = getelementptr inbounds nuw i8, ptr %18, i64 16
  %25 = load ptr, ptr %24, align 8, !tbaa !40
  %26 = tail call fastcc i64 @dgram_pair_write_actual(ptr noundef %0, ptr noundef %19, i64 noundef %21, ptr noundef %23, ptr noundef %25, i32 noundef 1)
  %27 = icmp slt i64 %26, 0
  br i1 %27, label %28, label %32

28:                                               ; preds = %.preheader
  store i64 %.02631, ptr %5, align 8, !tbaa !35
  %.not = icmp eq i64 %.02631, 0
  br i1 %.not, label %29, label %36

29:                                               ; preds = %28
  tail call void @ERR_new() #7
  tail call void @ERR_set_debug(ptr noundef nonnull @.str.2, i32 noundef 1332, ptr noundef nonnull @__func__.dgram_pair_sendmmsg) #7
  %30 = trunc i64 %26 to i32
  %31 = sub i32 0, %30
  tail call void (i32, i32, ptr, ...) @ERR_set_error(i32 noundef 32, i32 noundef %31, ptr noundef null) #7
  br label %36

32:                                               ; preds = %.preheader
  %33 = getelementptr inbounds nuw i8, ptr %18, i64 32
  store i64 0, ptr %33, align 8, !tbaa !41
  %34 = add nuw i64 %.02631, 1
  %exitcond.not = icmp eq i64 %34, %3
  br i1 %exitcond.not, label %35, label %.preheader, !llvm.loop !42

35:                                               ; preds = %32
  store i64 %3, ptr %5, align 8, !tbaa !35
  br label %36

36:                                               ; preds = %28, %29, %35
  %.027 = phi i32 [ 0, %29 ], [ 1, %35 ], [ 1, %28 ]
  %37 = load ptr, ptr %12, align 8, !tbaa !18
  %38 = tail call i32 @CRYPTO_THREAD_unlock(ptr noundef %37) #7
  br label %39

39:                                               ; preds = %36, %16, %8
  %.0 = phi i32 [ 1, %8 ], [ 0, %16 ], [ %.027, %36 ]
  ret i32 %.0
}